target datalayout = "e-m:e-p270:32:32-p271:32:32-p272:64:64-i64:64-i128:128-f80:128-n8:16:32:64-S128"
target triple = "x86_64-pc-linux-gnu"

%struct.AVRational = type { i32, i32 }

; Function Attrs: inlinehint nounwind uwtable
define internal i64 @av_make_q(i32 noundef %0, i32 noundef %1) #7 {
  %3 = alloca %struct.AVRational, align 4
  %4 = alloca i32, align 4
  %5 = alloca i32, align 4
  store i32 %0, ptr %4, align 4, !tbaa !11
  store i32 %1, ptr %5, align 4, !tbaa !11
  %6 = getelementptr inbounds nuw %struct.AVRational, ptr %3, i32 0, i32 0
  %7 = load i32, ptr %4, align 4, !tbaa !11
  store i32 %7, ptr %6, align 4, !tbaa !13
  %8 = getelementptr inbounds nuw %struct.AVRational, ptr %3, i32 0, i32 1
  %9 = load i32, ptr %5, align 4, !tbaa !11
  store i32 %9, ptr %8, align 4, !tbaa !15
  %10 = load i64, ptr %3, align 4
  ret i64 %10
}

; Function Attrs: nounwind uwtable
define i64 @av_gcd_q(i64 %0, i64 %1, i32 noundef %2, i64 %3) #0 {
  %5 = alloca %struct.AVRational, align 4
  %6 = alloca %struct.AVRational, align 4
  %7 = alloca %struct.AVRational, align 4
  %8 = alloca %struct.AVRational, align 4
  %9 = alloca i32, align 4
  %10 = alloca i64, align 8
  %11 = alloca i64, align 8
  store i64 %0, ptr %6, align 4
  store i64 %1, ptr %7, align 4
  store i64 %3, ptr %8, align 4
  store i32 %2, ptr %9, align 4, !tbaa !11
  call void @llvm.lifetime.start.p0(i64 8, ptr %10) #9
  call void @llvm.lifetime.start.p0(i64 8, ptr %11) #9
  %12 = getelementptr inbounds nuw %struct.AVRational, ptr %6, i32 0, i32 1
  %13 = load i32, ptr %12, align 4, !tbaa !15
  %14 = sext i32 %13 to i64
  %15 = getelementptr inbounds nuw %struct.AVRational, ptr %7, i32 0, i32 1
  %16 = load i32, ptr %15, align 4, !tbaa !15
  %17 = sext i32 %16 to i64
  %18 = call i64 @av_gcd(i64 noundef %14, i64 noundef %17) #10
  store i64 %18, ptr %10, align 8, !tbaa !9
  %19 = getelementptr inbounds nuw %struct.AVRational, ptr %6, i32 0, i32 1
  %20 = load i32, ptr %19, align 4, !tbaa !15
  %21 = sext i32 %20 to i64
  %22 = load i64, ptr %10, align 8, !tbaa !9
  %23 = sdiv i64 %21, %22
  %24 = getelementptr inbounds nuw %struct.AVRational, ptr %7, i32 0, i32 1
  %25 = load i32, ptr %24, align 4, !tbaa !15
  %26 = sext i32 %25 to i64
  %27 = mul nsw i64 %23, %26
  store i64 %27, ptr %11, align 8, !tbaa !9
  %28 = load i64, ptr %11, align 8, !tbaa !9
  %29 = load i32, ptr %9, align 4, !tbaa !11
  %30 = sext i32 %29 to i64
  %31 = icmp slt i64 %28, %30
  br i1 %31, label %32, label %44

32:                                               ; preds = %4
  %33 = getelementptr inbounds nuw %struct.AVRational, ptr %6, i32 0, i32 0
  %34 = load i32, ptr %33, align 4, !tbaa !13
  %35 = sext i32 %34 to i64
  %36 = getelementptr inbounds nuw %struct.AVRational, ptr %7, i32 0, i32 0
  %37 = load i32, ptr %36, align 4, !tbaa !13
  %38 = sext i32 %37 to i64
  %39 = call i64 @av_gcd(i64 noundef %35, i64 noundef %38) #10
  %40 = trunc i64 %39 to i32
  %41 = load i64, ptr %11, align 8, !tbaa !9
  %42 = trunc i64 %41 to i32
  %43 = call i64 @av_make_q(i32 noundef %40, i32 noundef %42)
  store i64 %43, ptr %5, align 4
  br label %45

44:                                               ; preds = %4
  call void @llvm.memcpy.p0.p0.i64(ptr align 4 %5, ptr align 4 %8, i64 8, i1 false), !tbaa.struct !16
  br label %45

45:                                               ; preds = %44, %32
  call void @llvm.lifetime.end.p0(i64 8, ptr %11) #9
  call void @llvm.lifetime.end.p0(i64 8, ptr %10) #9
  %46 = load i64, ptr %5, align 4
  ret i64 %46
}