; Function Attrs: mustprogress nofree nosync nounwind willreturn memory(none) uwtable
define i64 @av_gcd_q(i64 %0, i64 %1, i32 noundef %2, i64 %3) local_unnamed_addr #3 {
  %5 = ashr i64 %0, 32
  %6 = ashr i64 %1, 32
  %7 = tail call i64 @av_gcd(i64 noundef %5, i64 noundef %6) #8
  %8 = sdiv i64 %5, %7
  %9 = mul nsw i64 %8, %6
  %10 = sext i32 %2 to i64
  %11 = icmp slt i64 %9, %10
  br i1 %11, label %12, label %16

12:                                               ; preds = %4
  %sext = shl i64 %0, 32
  %13 = ashr exact i64 %sext, 32
  %sext10 = shl i64 %1, 32
  %14 = ashr exact i64 %sext10, 32
  %15 = tail call i64 @av_gcd(i64 noundef %13, i64 noundef %14) #8
  %.sroa.2.0.insert.ext.i = shl i64 %9, 32
  %.sroa.0.0.insert.ext.i = and i64 %15, 4294967295
  %.sroa.0.0.insert.insert.i = or disjoint i64 %.sroa.0.0.insert.ext.i, %.sroa.2.0.insert.ext.i
  br label %16

16:                                               ; preds = %4, %12
  %.sroa.09.0 = phi i64 [ %.sroa.0.0.insert.insert.i, %12 ], [ %3, %4 ]
  ret i64 %.sroa.09.0
}